; Function Attrs: mustprogress nofree norecurse nosync nounwind willreturn memory(readwrite, inaccessiblemem: none) uwtable
define internal ptr @obj_extra_data_get(ptr noundef readonly captures(none) %0, ptr readnone captures(none) %1) #5 {
  %3 = getelementptr i8, ptr %0, i64 8
  %.val.i = load ptr, ptr %3, align 8, !tbaa !14
  %4 = getelementptr inbounds nuw i8, ptr %.val.i, i64 32
  %5 = load i64, ptr %4, align 8, !tbaa !28
  %6 = getelementptr i8, ptr %0, i64 %5
  %7 = load ptr, ptr %6, align 8, !tbaa !6
  %.not = icmp eq ptr %7, null
  br i1 %.not, label %_Py_NewRef.exit, label %8

8:                                                ; preds = %2
  %9 = load i32, ptr %7, align 8, !tbaa !3
  %10 = icmp slt i32 %9, 0
  br i1 %10, label %_Py_NewRef.exit, label %11

11:                                               ; preds = %8
  %12 = add nuw i32 %9, 1
  store i32 %12, ptr %7, align 8, !tbaa !3
  br label %_Py_NewRef.exit

_Py_NewRef.exit:                                  ; preds = %11, %8, %2
  %.0 = phi ptr [ @_Py_NoneStruct, %2 ], [ %7, %8 ], [ %7, %11 ]
  ret ptr %.0
}